(dp0
S'tagprogress'
p1
(dp2
S'/home/joshua/Music'
p3
(lp4
S'/home/joshua/Music/Daft Punk Discography (320Kbs)/Tron Legacy (Daft Punk - Special Edtion) MP3/Tron Legacy (Amazon MP3 Exclusive Version) [+digital booklet]'
p5
asS'/home/joshua/Music.bak'
p6
(lp7
S'/home/joshua/Music.bak/Electronic/Daft Punk/Musique, Volume 1_ 1993-2005'
p8
aS'/home/joshua/Music.bak/Electronic/Daft Punk/Musique, Volume 1_ 1993-2005/Disc 01'
p9
ass.